; ModuleID = '45/778.c'
source_filename = "45/778.c"
target datalayout = "e-m:e-p270:32:32-p271:32:32-p272:64:64-i64:64-f80:128-n8:16:32:64-S128"
target triple = "x86_64-pc-linux-gnu"

@.str = private unnamed_addr constant [3 x i8] c"%c\00", align 1
@.str.1 = private unnamed_addr constant [3 x i8] c"%d\00", align 1

; Function Attrs: noinline nounwind uwtable
define dso_local void @main() #0 {
  %1 = alloca i32, align 4
  %2 = alloca i32, align 4
  %3 = alloca i32, align 4
  %4 = alloca i32, align 4
  %5 = alloca i32, align 4
  %6 = alloca i32, align 4
  %7 = alloca i32, align 4
  %8 = alloca i8, align 1
  %9 = alloca [2 x [50 x i8]], align 16
  store i32 0, i32* %1, align 4
  store i32 0, i32* %2, align 4
  br label %10

10:                                               ; preds = %33, %0
  %11 = call i32 (i8*, ...) @__isoc99_scanf(i8* getelementptr inbounds ([3 x i8], [3 x i8]* @.str, i64 0, i64 0), i8* %8)
  %12 = load i8, i8* %8, align 1
  %13 = sext i8 %12 to i32
  %14 = icmp eq i32 %13, 32
  br i1 %14, label %15, label %19

15:                                               ; preds = %10
  %16 = load i32, i32* %1, align 4
  %17 = add nsw i32 %16, 1
  store i32 %17, i32* %1, align 4
  %18 = load i32, i32* %2, align 4
  store i32 %18, i32* %6, align 4
  store i32 0, i32* %2, align 4
  br label %19

19:                                               ; preds = %15, %10
  %20 = load i8, i8* %8, align 1
  %21 = load i32, i32* %1, align 4
  %22 = sext i32 %21 to i64
  %23 = getelementptr inbounds [2 x [50 x i8]], [2 x [50 x i8]]* %9, i64 0, i64 %22
  %24 = load i32, i32* %2, align 4
  %25 = sext i32 %24 to i64
  %26 = getelementptr inbounds [50 x i8], [50 x i8]* %23, i64 0, i64 %25
  store i8 %20, i8* %26, align 1
  %27 = load i32, i32* %2, align 4
  %28 = add nsw i32 %27, 1
  store i32 %28, i32* %2, align 4
  %29 = load i8, i8* %8, align 1
  %30 = sext i8 %29 to i32
  %31 = icmp eq i32 %30, 10
  br i1 %31, label %32, label %33

32:                                               ; preds = %19
  br label %34

33:                                               ; preds = %19
  br label %10

34:                                               ; preds = %32
  store i32 0, i32* %3, align 4
  br label %35

35:                                               ; preds = %70, %34
  %36 = load i32, i32* %3, align 4
  store i32 %36, i32* %7, align 4
  store i32 0, i32* %5, align 4
  store i32 0, i32* %4, align 4
  br label %37

37:                                               ; preds = %59, %35
  %38 = load i32, i32* %4, align 4
  %39 = load i32, i32* %6, align 4
  %40 = icmp slt i32 %38, %39
  br i1 %40, label %41, label %62

41:                                               ; preds = %37
  %42 = getelementptr inbounds [2 x [50 x i8]], [2 x [50 x i8]]* %9, i64 0, i64 0
  %43 = load i32, i32* %4, align 4
  %44 = sext i32 %43 to i64
  %45 = getelementptr inbounds [50 x i8], [50 x i8]* %42, i64 0, i64 %44
  %46 = load i8, i8* %45, align 1
  %47 = sext i8 %46 to i32
  %48 = getelementptr inbounds [2 x [50 x i8]], [2 x [50 x i8]]* %9, i64 0, i64 1
  %49 = load i32, i32* %7, align 4
  %50 = sext i32 %49 to i64
  %51 = getelementptr inbounds [50 x i8], [50 x i8]* %48, i64 0, i64 %50
  %52 = load i8, i8* %51, align 1
  %53 = sext i8 %52 to i32
  %54 = icmp ne i32 %47, %53
  br i1 %54, label %55, label %56

55:                                               ; preds = %41
  store i32 1, i32* %5, align 4
  br label %62

56:                                               ; preds = %41
  %57 = load i32, i32* %7, align 4
  %58 = add nsw i32 %57, 1
  store i32 %58, i32* %7, align 4
  br label %59

59:                                               ; preds = %56
  %60 = load i32, i32* %4, align 4
  %61 = add nsw i32 %60, 1
  store i32 %61, i32* %4, align 4
  br label %37

62:                                               ; preds = %55, %37
  %63 = load i32, i32* %5, align 4
  %64 = icmp eq i32 %63, 0
  br i1 %64, label %65, label %69

65:                                               ; preds = %62
  %66 = load i32, i32* %3, align 4
  %67 = sub nsw i32 %66, 1
  %68 = call i32 (i8*, ...) @printf(i8* getelementptr inbounds ([3 x i8], [3 x i8]* @.str.1, i64 0, i64 0), i32 %67)
  br label %73

69:                                               ; preds = %62
  br label %70

70:                                               ; preds = %69
  %71 = load i32, i32* %3, align 4
  %72 = add nsw i32 %71, 1
  store i32 %72, i32* %3, align 4
  br label %35

73:                                               ; preds = %65
  ret void
}

declare dso_local i32 @__isoc99_scanf(i8*, ...) #1

declare dso_local i32 @printf(i8*, ...) #1


!llvm.module.flags = !{!0}
!llvm.ident = !{!1}

!0 = !{i32 1, !"wchar_size", i32 4}
!1 = !{!"clang version 10.0.0-4ubuntu1 "}
